target datalayout = "e-m:e-p270:32:32-p271:32:32-p272:64:64-i64:64-i128:128-f80:128-n8:16:32:64-S128"
target triple = "x86_64-pc-linux-gnu"

%struct._zval_struct = type { %union._zend_value, %union.anon, %union.anon.2 }
%union._zend_value = type { i64 }
%union.anon = type { i32 }
%union.anon.2 = type { i32 }

; Function Attrs: nounwind uwtable
define dso_local void @add_index_resource(ptr noundef %0, i64 noundef %1, ptr noundef %2) #0 {
  %4 = alloca ptr, align 8
  %5 = alloca i64, align 8
  %6 = alloca ptr, align 8
  %7 = alloca %struct._zval_struct, align 8
  %8 = alloca ptr, align 8
  store ptr %0, ptr %4, align 8, !tbaa !8
  store i64 %1, ptr %5, align 8, !tbaa !85
  store ptr %2, ptr %6, align 8, !tbaa !165
  call void @llvm.lifetime.start.p0(i64 16, ptr %7) #21
  br label %9

9:                                                ; preds = %3
  call void @llvm.lifetime.start.p0(i64 8, ptr %8) #21
  store ptr %7, ptr %8, align 8, !tbaa !8
  %10 = load ptr, ptr %6, align 8, !tbaa !165
  %11 = load ptr, ptr %8, align 8, !tbaa !8
  %12 = getelementptr inbounds nuw %struct._zval_struct, ptr %11, i32 0, i32 0
  store ptr %10, ptr %12, align 8, !tbaa !44
  %13 = load ptr, ptr %8, align 8, !tbaa !8
  %14 = getelementptr inbounds nuw %struct._zval_struct, ptr %13, i32 0, i32 1
  store i32 265, ptr %14, align 8, !tbaa !44
  call void @llvm.lifetime.end.p0(i64 8, ptr %8) #21
  br label %15

15:                                               ; preds = %9
  br label %16

16:                                               ; preds = %15
  %17 = load ptr, ptr %4, align 8, !tbaa !8
  %18 = getelementptr inbounds nuw %struct._zval_struct, ptr %17, i32 0, i32 0
  %19 = load ptr, ptr %18, align 8, !tbaa !44
  %20 = load i64, ptr %5, align 8, !tbaa !85
  %21 = call ptr @zend_hash_index_update(ptr noundef %19, i64 noundef %20, ptr noundef %7)
  call void @llvm.lifetime.end.p0(i64 16, ptr %7) #21
  ret void
}