; Function Attrs: nounwind uwtable
define dso_local void @add_index_resource(ptr noundef readonly captures(none) %0, i64 noundef %1, ptr noundef %2) local_unnamed_addr #2 {
  %4 = alloca %struct._zval_struct, align 8
  call void @llvm.lifetime.start.p0(i64 16, ptr nonnull %4) #34
  store ptr %2, ptr %4, align 8, !tbaa !42
  %5 = getelementptr inbounds nuw i8, ptr %4, i64 8
  store i32 265, ptr %5, align 8, !tbaa !42
  %6 = load ptr, ptr %0, align 8, !tbaa !42
  %7 = call ptr @zend_hash_index_update(ptr noundef %6, i64 noundef %1, ptr noundef nonnull %4) #34
  call void @llvm.lifetime.end.p0(i64 16, ptr nonnull %4) #34
  ret void
}